target datalayout = "e-m:e-p270:32:32-p271:32:32-p272:64:64-i64:64-i128:128-f80:128-n8:16:32:64-S128"
target triple = "x86_64-unknown-linux-gnu"

module asm ".section \22.export_symbol\22,\22a\22 ; __export_symbol_fwnode_mdiobus_phy_device_register: ; .asciz \22\22 ; .asciz \22\22 ; .balign 8 ; .quad fwnode_mdiobus_phy_device_register ; .previous"
module asm ".section \22.export_symbol\22,\22a\22 ; __export_symbol_fwnode_mdiobus_register_phy: ; .asciz \22\22 ; .asciz \22\22 ; .balign 8 ; .quad fwnode_mdiobus_register_phy ; .previous"

@__UNIQUE_ID_author440 = internal constant [63 x i8] c"fwnode_mdio.author=Calvin Johnson <calvin.johnson@oss.nxp.com>\00", section ".modinfo", align 1
@__UNIQUE_ID_file441 = internal constant [46 x i8] c"fwnode_mdio.file=drivers/net/mdio/fwnode_mdio\00", section ".modinfo", align 1
@__UNIQUE_ID_license442 = internal constant [24 x i8] c"fwnode_mdio.license=GPL\00", section ".modinfo", align 1
@__UNIQUE_ID_description443 = internal constant [65 x i8] c"fwnode_mdio.description=FWNODE MDIO bus (Ethernet PHY) accessors\00", section ".modinfo", align 1
@.str = private unnamed_addr constant [19 x i8] c"broken-turn-around\00", align 1
@.str.1 = private unnamed_addr constant [16 x i8] c"reset-assert-us\00", align 1
@.str.2 = private unnamed_addr constant [18 x i8] c"reset-deassert-us\00", align 1
@__UNIQUE_ID___addressable_fwnode_mdiobus_phy_device_register444 = internal global ptr @fwnode_mdiobus_phy_device_register, section ".discard.addressable", align 8
@.str.3 = private unnamed_addr constant [27 x i8] c"ethernet-phy-ieee802.3-c45\00", align 1
@__UNIQUE_ID___addressable_fwnode_mdiobus_register_phy445 = internal global ptr @fwnode_mdiobus_register_phy, section ".discard.addressable", align 8
@.str.5 = private unnamed_addr constant [11 x i8] c"compatible\00", align 1
@llvm.compiler.used = appending global [6 x ptr] [ptr @__UNIQUE_ID___addressable_fwnode_mdiobus_phy_device_register444, ptr @__UNIQUE_ID___addressable_fwnode_mdiobus_register_phy445, ptr @__UNIQUE_ID_author440, ptr @__UNIQUE_ID_description443, ptr @__UNIQUE_ID_file441, ptr @__UNIQUE_ID_license442], section "llvm.metadata"

; Function Attrs: fn_ret_thunk_extern nounwind null_pointer_is_valid
define dso_local i32 @fwnode_mdiobus_phy_device_register(ptr nocapture noundef %0, ptr noundef %1, ptr noundef %2, i32 noundef %3) #0 align 16 {
  %5 = tail call i32 @fwnode_irq_get(ptr noundef %2, i32 noundef 0) #3
  %6 = icmp eq i32 %5, -517
  br i1 %6, label %7, label %9

7:                                                ; preds = %4
  %8 = tail call i32 @driver_deferred_probe_check_state(ptr noundef %1) #3
  br label %9

9:                                                ; preds = %7, %4
  %10 = phi i32 [ %8, %7 ], [ %5, %4 ]
  %11 = icmp eq i32 %10, -517
  br i1 %11, label %41, label %12

12:                                               ; preds = %9
  %13 = icmp sgt i32 %10, 0
  br i1 %13, label %14, label %19

14:                                               ; preds = %12
  %15 = getelementptr inbounds i8, ptr %1, i64 1176
  store i32 %10, ptr %15, align 8
  %16 = getelementptr inbounds i8, ptr %0, i64 2192
  %17 = zext i32 %3 to i64
  %18 = getelementptr [32 x i32], ptr %16, i64 0, i64 %17
  store i32 %10, ptr %18, align 4
  br label %25

19:                                               ; preds = %12
  %20 = getelementptr inbounds i8, ptr %0, i64 2192
  %21 = zext i32 %3 to i64
  %22 = getelementptr [32 x i32], ptr %20, i64 0, i64 %21
  %23 = load i32, ptr %22, align 4
  %24 = getelementptr inbounds i8, ptr %1, i64 1176
  store i32 %23, ptr %24, align 8
  br label %25

25:                                               ; preds = %19, %14
  %26 = tail call zeroext i1 @fwnode_property_present(ptr noundef %2, ptr noundef nonnull @.str) #3
  br i1 %26, label %27, label %32

27:                                               ; preds = %25
  %28 = shl nuw i32 1, %3
  %29 = getelementptr inbounds i8, ptr %0, i64 2188
  %30 = load i32, ptr %29, align 4
  %31 = or i32 %30, %28
  store i32 %31, ptr %29, align 4
  br label %32

32:                                               ; preds = %27, %25
  %33 = getelementptr inbounds i8, ptr %1, i64 824
  %34 = tail call i32 @fwnode_property_read_u32_array(ptr noundef %2, ptr noundef nonnull @.str.1, ptr noundef %33, i64 noundef 1) #3
  %35 = getelementptr inbounds i8, ptr %1, i64 828
  %36 = tail call i32 @fwnode_property_read_u32_array(ptr noundef %2, ptr noundef nonnull @.str.2, ptr noundef %35, i64 noundef 1) #3
  %37 = tail call ptr @fwnode_handle_get(ptr noundef %2) #3
  tail call void @device_set_node(ptr noundef %1, ptr noundef %2) #3
  %38 = tail call i32 @phy_device_register(ptr noundef %1) #3
  %39 = icmp eq i32 %38, 0
  br i1 %39, label %41, label %40

40:                                               ; preds = %32
  tail call void @device_set_node(ptr noundef %1, ptr noundef null) #3
  tail call void @fwnode_handle_put(ptr noundef %2) #3
  br label %41

41:                                               ; preds = %40, %32, %9
  %42 = phi i32 [ %38, %40 ], [ -517, %9 ], [ 0, %32 ]
  ret i32 %42
}

; Function Attrs: nocallback nofree nosync nounwind willreturn memory(argmem: readwrite)
declare void @llvm.lifetime.start.p0(i64 immarg, ptr nocapture) #1

; Function Attrs: null_pointer_is_valid
declare dso_local i32 @fwnode_irq_get(ptr noundef, i32 noundef) local_unnamed_addr #2

; Function Attrs: null_pointer_is_valid
declare dso_local i32 @driver_deferred_probe_check_state(ptr noundef) local_unnamed_addr #2

; Function Attrs: null_pointer_is_valid
declare dso_local ptr @fwnode_handle_get(ptr noundef) local_unnamed_addr #2

; Function Attrs: null_pointer_is_valid
declare dso_local void @device_set_node(ptr noundef, ptr noundef) local_unnamed_addr #2

; Function Attrs: null_pointer_is_valid
declare dso_local i32 @phy_device_register(ptr noundef) local_unnamed_addr #2

; Function Attrs: null_pointer_is_valid
declare dso_local void @fwnode_handle_put(ptr noundef) local_unnamed_addr #2

; Function Attrs: nocallback nofree nosync nounwind willreturn memory(argmem: readwrite)
declare void @llvm.lifetime.end.p0(i64 immarg, ptr nocapture) #1

; Function Attrs: fn_ret_thunk_extern nounwind null_pointer_is_valid
define dso_local i32 @fwnode_mdiobus_register_phy(ptr noundef %0, ptr noundef %1, i32 noundef %2) #0 align 16 {
  %4 = alloca i32, align 4
  call void @llvm.lifetime.start.p0(i64 4, ptr nonnull %4) #3
  store i32 0, ptr %4, align 4, !annotation !5
  %5 = tail call zeroext i1 @is_acpi_device_node(ptr noundef %1) #3
  br i1 %5, label %9, label %6

6:                                                ; preds = %3
  %7 = tail call zeroext i1 @is_acpi_data_node(ptr noundef %1) #3
  %8 = select i1 %7, ptr null, ptr inttoptr (i64 -38 to ptr)
  br label %9

9:                                                ; preds = %6, %3
  %10 = phi ptr [ null, %3 ], [ %8, %6 ]
  %11 = icmp ugt ptr %10, inttoptr (i64 -4096 to ptr)
  br i1 %11, label %12, label %15

12:                                               ; preds = %9
  %13 = ptrtoint ptr %10 to i64
  %14 = trunc i64 %13 to i32
  br label %52

15:                                               ; preds = %9
  %16 = tail call i32 @fwnode_property_match_string(ptr noundef %1, ptr noundef nonnull @.str.5, ptr noundef nonnull @.str.3) #3
  %17 = icmp sgt i32 %16, -1
  br i1 %17, label %21, label %18

18:                                               ; preds = %15
  %19 = call i32 @fwnode_get_phy_id(ptr noundef %1, ptr noundef nonnull %4) #3
  %20 = icmp eq i32 %19, 0
  br i1 %20, label %23, label %21

21:                                               ; preds = %18, %15
  %22 = call ptr @get_phy_device(ptr noundef %0, i32 noundef %2, i1 noundef zeroext %17) #3
  br label %26

23:                                               ; preds = %18
  %24 = load i32, ptr %4, align 4
  %25 = call ptr @phy_device_create(ptr noundef %0, i32 noundef %2, i32 noundef %24, i1 noundef zeroext false, ptr noundef null) #3
  br label %26

26:                                               ; preds = %23, %21
  %27 = phi ptr [ %22, %21 ], [ %25, %23 ]
  %28 = icmp ugt ptr %27, inttoptr (i64 -4096 to ptr)
  br i1 %28, label %29, label %32

29:                                               ; preds = %26
  %30 = ptrtoint ptr %27 to i64
  %31 = trunc i64 %30 to i32
  br label %52

32:                                               ; preds = %26
  %33 = call zeroext i1 @is_acpi_device_node(ptr noundef %1) #3
  br i1 %33, label %36, label %34

34:                                               ; preds = %32
  %35 = call zeroext i1 @is_acpi_data_node(ptr noundef %1) #3
  br i1 %35, label %36, label %47

36:                                               ; preds = %34, %32
  %37 = getelementptr inbounds i8, ptr %0, i64 2192
  %38 = zext i32 %2 to i64
  %39 = getelementptr [32 x i32], ptr %37, i64 0, i64 %38
  %40 = load i32, ptr %39, align 4
  %41 = getelementptr inbounds i8, ptr %27, i64 1176
  store i32 %40, ptr %41, align 8
  %42 = call ptr @fwnode_handle_get(ptr noundef %1) #3
  %43 = getelementptr inbounds i8, ptr %27, i64 632
  store ptr %42, ptr %43, align 8
  %44 = call i32 @phy_device_register(ptr noundef %27) #3
  %45 = icmp eq i32 %44, 0
  br i1 %45, label %47, label %46

46:                                               ; preds = %36
  store ptr null, ptr %43, align 8
  call void @fwnode_handle_put(ptr noundef %1) #3
  call void @phy_device_free(ptr noundef %27) #3
  br label %52

47:                                               ; preds = %36, %34
  %48 = getelementptr inbounds i8, ptr %27, i64 1384
  store ptr null, ptr %48, align 8
  %49 = icmp eq ptr %10, null
  br i1 %49, label %52, label %50

50:                                               ; preds = %47
  %51 = getelementptr inbounds i8, ptr %27, i64 1376
  store ptr %10, ptr %51, align 8
  br label %52

52:                                               ; preds = %50, %47, %46, %29, %12
  %53 = phi i32 [ 0, %50 ], [ 0, %47 ], [ %14, %12 ], [ %31, %29 ], [ %44, %46 ]
  call void @llvm.lifetime.end.p0(i64 4, ptr nonnull %4) #3
  ret i32 %53
}

; Function Attrs: null_pointer_is_valid
declare dso_local i32 @fwnode_get_phy_id(ptr noundef, ptr noundef) local_unnamed_addr #2

; Function Attrs: null_pointer_is_valid
declare dso_local ptr @get_phy_device(ptr noundef, i32 noundef, i1 noundef zeroext) local_unnamed_addr #2

; Function Attrs: null_pointer_is_valid
declare dso_local ptr @phy_device_create(ptr noundef, i32 noundef, i32 noundef, i1 noundef zeroext, ptr noundef) local_unnamed_addr #2

; Function Attrs: null_pointer_is_valid
declare dso_local void @phy_device_free(ptr noundef) local_unnamed_addr #2

; Function Attrs: null_pointer_is_valid
declare dso_local zeroext i1 @fwnode_property_present(ptr noundef, ptr noundef) local_unnamed_addr #2

; Function Attrs: null_pointer_is_valid
declare dso_local i32 @fwnode_property_read_u32_array(ptr noundef, ptr noundef, ptr noundef, i64 noundef) local_unnamed_addr #2

; Function Attrs: null_pointer_is_valid
declare dso_local i32 @fwnode_property_match_string(ptr noundef, ptr noundef, ptr noundef) local_unnamed_addr #2

; Function Attrs: null_pointer_is_valid
declare dso_local zeroext i1 @is_acpi_device_node(ptr noundef) local_unnamed_addr #2

; Function Attrs: null_pointer_is_valid
declare dso_local zeroext i1 @is_acpi_data_node(ptr noundef) local_unnamed_addr #2


!llvm.module.flags = !{!0, !1, !2, !3, !4}

!0 = !{i32 1, !"wchar_size", i32 2}
!1 = !{i32 8, !"cf-protection-branch", i32 1}
!2 = !{i32 4, !"function_return_thunk_extern", i32 1}
!3 = !{i32 4, !"indirect_branch_cs_prefix", i32 1}
!4 = !{i32 4, !"SkipRaxSetup", i32 1}
!5 = !{!"auto-init"}
